; Function Attrs: mustprogress uwtable
define dso_local void @_Z9print_mapRKSt3mapI14eStatementTypebSt4lessIS0_ESaISt4pairIKS0_bEEE(ptr noundef nonnull readonly align 8 captures(address) dereferenceable(48) %0) local_unnamed_addr #4 personality ptr @__gxx_personality_v0 {
  %2 = getelementptr inbounds nuw i8, ptr %0, i64 24
  %3 = load ptr, ptr %2, align 8, !tbaa !13
  %4 = getelementptr inbounds nuw i8, ptr %0, i64 8
  %.not6 = icmp eq ptr %3, %4
  br i1 %.not6, label %._crit_edge, label %.lr.ph

.lr.ph:                                           ; preds = %1, %_ZSt4endlIcSt11char_traitsIcEERSt13basic_ostreamIT_T0_ES6_.exit
  %.sroa.02.07 = phi ptr [ %33, %_ZSt4endlIcSt11char_traitsIcEERSt13basic_ostreamIT_T0_ES6_.exit ], [ %3, %1 ]
  %5 = tail call noundef nonnull align 8 dereferenceable(8) ptr @_ZSt16__ostream_insertIcSt11char_traitsIcEERSt13basic_ostreamIT_T0_ES6_PKS3_l(ptr noundef nonnull align 8 dereferenceable(8) @_ZSt4cout, ptr noundef nonnull @.str, i64 noundef 4)
  %6 = getelementptr inbounds nuw i8, ptr %.sroa.02.07, i64 32
  %7 = load i32, ptr %6, align 4, !tbaa !14
  %8 = tail call noundef nonnull align 8 dereferenceable(8) ptr @_ZNSolsEi(ptr noundef nonnull align 8 dereferenceable(8) @_ZSt4cout, i32 noundef %7)
  %9 = tail call noundef nonnull align 8 dereferenceable(8) ptr @_ZSt16__ostream_insertIcSt11char_traitsIcEERSt13basic_ostreamIT_T0_ES6_PKS3_l(ptr noundef nonnull align 8 dereferenceable(8) %8, ptr noundef nonnull @.str.3, i64 noundef 7)
  %10 = getelementptr inbounds nuw i8, ptr %.sroa.02.07, i64 36
  %11 = load i8, ptr %10, align 4, !tbaa !18, !range !19, !noundef !20
  %12 = trunc nuw i8 %11 to i1
  %13 = tail call noundef nonnull align 8 dereferenceable(8) ptr @_ZNSo9_M_insertIbEERSoT_(ptr noundef nonnull align 8 dereferenceable(8) %8, i1 noundef zeroext %12)
  %14 = load ptr, ptr %13, align 8, !tbaa !21
  %15 = getelementptr i8, ptr %14, i64 -24
  %16 = load i64, ptr %15, align 8
  %17 = getelementptr inbounds i8, ptr %13, i64 %16
  %18 = getelementptr inbounds nuw i8, ptr %17, i64 240
  %19 = load ptr, ptr %18, align 8, !tbaa !23
  %.not.i.i.i = icmp eq ptr %19, null
  br i1 %.not.i.i.i, label %20, label %_ZSt13__check_facetISt5ctypeIcEERKT_PS3_.exit.i.i

20:                                               ; preds = %.lr.ph
  tail call void @_ZSt16__throw_bad_castv() #19
  unreachable

_ZSt13__check_facetISt5ctypeIcEERKT_PS3_.exit.i.i: ; preds = %.lr.ph
  %21 = getelementptr inbounds nuw i8, ptr %19, i64 56
  %22 = load i8, ptr %21, align 8, !tbaa !39
  %.not.i1.i.i = icmp eq i8 %22, 0
  br i1 %.not.i1.i.i, label %26, label %23

23:                                               ; preds = %_ZSt13__check_facetISt5ctypeIcEERKT_PS3_.exit.i.i
  %24 = getelementptr inbounds nuw i8, ptr %19, i64 67
  %25 = load i8, ptr %24, align 1, !tbaa !45
  br label %_ZSt4endlIcSt11char_traitsIcEERSt13basic_ostreamIT_T0_ES6_.exit

26:                                               ; preds = %_ZSt13__check_facetISt5ctypeIcEERKT_PS3_.exit.i.i
  tail call void @_ZNKSt5ctypeIcE13_M_widen_initEv(ptr noundef nonnull align 8 dereferenceable(570) %19)
  %27 = load ptr, ptr %19, align 8, !tbaa !21
  %28 = getelementptr inbounds nuw i8, ptr %27, i64 48
  %29 = load ptr, ptr %28, align 8
  %30 = tail call noundef signext i8 %29(ptr noundef nonnull align 8 dereferenceable(570) %19, i8 noundef signext 10)
  br label %_ZSt4endlIcSt11char_traitsIcEERSt13basic_ostreamIT_T0_ES6_.exit

_ZSt4endlIcSt11char_traitsIcEERSt13basic_ostreamIT_T0_ES6_.exit: ; preds = %23, %26
  %.0.i.i.i = phi i8 [ %25, %23 ], [ %30, %26 ]
  %31 = tail call noundef nonnull align 8 dereferenceable(8) ptr @_ZNSo3putEc(ptr noundef nonnull align 8 dereferenceable(8) %13, i8 noundef signext %.0.i.i.i)
  %32 = tail call noundef nonnull align 8 dereferenceable(8) ptr @_ZNSo5flushEv(ptr noundef nonnull align 8 dereferenceable(8) %31)
  %33 = tail call noundef ptr @_ZSt18_Rb_tree_incrementPKSt18_Rb_tree_node_base(ptr noundef nonnull %.sroa.02.07) #20
  %.not = icmp eq ptr %33, %4
  br i1 %.not, label %._crit_edge, label %.lr.ph, !llvm.loop !46

._crit_edge:                                      ; preds = %_ZSt4endlIcSt11char_traitsIcEERSt13basic_ostreamIT_T0_ES6_.exit, %1
  ret void
}